target datalayout = "e-m:e-p270:32:32-p271:32:32-p272:64:64-i64:64-i128:128-f80:128-n8:16:32:64-S128"
target triple = "x86_64-pc-linux-gnu"

%struct.VduseDev = type { ptr, [256 x %struct.VduseIovaRegion], i32, ptr, i32, i32, i16, i16, i64, ptr, i32, i32, ptr, ptr }
%struct.VduseIovaRegion = type { i64, i64, i64, i64 }
%struct.VduseOps = type { ptr, ptr }
%struct.vduse_dev_config = type { [256 x i8], i32, i32, i64, i32, i32, [13 x i32], i32, [0 x i8] }

@stderr = external global ptr, align 8
@.str.6 = private unnamed_addr constant [29 x i8] c"Invalid parameter for vduse\0A\00", align 1
@.str.7 = private unnamed_addr constant [33 x i8] c"Failed to allocate vduse device\0A\00", align 1
@.str.10 = private unnamed_addr constant [36 x i8] c"Failed to init vduse device %s: %s\0A\00", align 1
@.str.11 = private unnamed_addr constant [19 x i8] c"/dev/vduse/control\00", align 1
@.str.12 = private unnamed_addr constant [39 x i8] c"Failed to open /dev/vduse/control: %s\0A\00", align 1
@.str.13 = private unnamed_addr constant [35 x i8] c"Failed to set api version %lu: %s\0A\00", align 1
@.str.14 = private unnamed_addr constant [33 x i8] c"Failed to allocate config space\0A\00", align 1
@.str.15 = private unnamed_addr constant [29 x i8] c"!vduse_name_is_invalid(name)\00", align 1
@.str.16 = private unnamed_addr constant [40 x i8] c"../qemu/subprojects/libvduse/libvduse.c\00", align 1
@__PRETTY_FUNCTION__.vduse_dev_create = private unnamed_addr constant [125 x i8] c"VduseDev *vduse_dev_create(const char *, uint32_t, uint32_t, uint64_t, uint16_t, uint32_t, char *, const VduseOps *, void *)\00", align 1
@.str.17 = private unnamed_addr constant [38 x i8] c"Failed to create vduse device %s: %s\0A\00", align 1
@.str.38 = private unnamed_addr constant [3 x i8] c"..\00", align 1
@.str.41 = private unnamed_addr constant [10 x i8] c"fbit < 64\00", align 1
@__PRETTY_FUNCTION__.has_feature = private unnamed_addr constant [42 x i8] c"_Bool has_feature(uint64_t, unsigned int)\00", align 1

; Function Attrs: inlinehint nounwind uwtable
define internal zeroext i1 @has_feature(i64 noundef %0, i32 noundef %1) #5 {
  %3 = alloca i64, align 8
  %4 = alloca i32, align 4
  store i64 %0, ptr %3, align 8
  store i32 %1, ptr %4, align 4
  %5 = load i32, ptr %4, align 4
  %6 = icmp ult i32 %5, 64
  br i1 %6, label %7, label %8

7:                                                ; preds = %2
  br label %9

8:                                                ; preds = %2
  call void @__assert_fail(ptr noundef @.str.41, ptr noundef @.str.16, i32 noundef 167, ptr noundef @__PRETTY_FUNCTION__.has_feature) #15
  unreachable

9:                                                ; preds = %7
  %10 = load i64, ptr %3, align 8
  %11 = load i32, ptr %4, align 4
  %12 = zext i32 %11 to i64
  %13 = shl i64 1, %12
  %14 = and i64 %10, %13
  %15 = icmp ne i64 %14, 0
  %16 = xor i1 %15, true
  %17 = xor i1 %16, true
  ret i1 %17
}

; Function Attrs: inlinehint nounwind uwtable
define internal zeroext i1 @vduse_name_is_invalid(ptr noundef %0) #5 {
  %2 = alloca ptr, align 8
  store ptr %0, ptr %2, align 8
  %3 = load ptr, ptr %2, align 8
  %4 = call i64 @strlen(ptr noundef %3) #18
  %5 = icmp uge i64 %4, 256
  br i1 %5, label %10, label %6

6:                                                ; preds = %1
  %7 = load ptr, ptr %2, align 8
  %8 = call ptr @strstr(ptr noundef %7, ptr noundef @.str.38) #18
  %9 = icmp ne ptr %8, null
  br label %10

10:                                               ; preds = %6, %1
  %11 = phi i1 [ true, %1 ], [ %9, %6 ]
  ret i1 %11
}

; Function Attrs: nounwind uwtable
define dso_local ptr @vduse_dev_create(ptr noundef %0, i32 noundef %1, i32 noundef %2, i64 noundef %3, i16 noundef zeroext %4, i32 noundef %5, ptr noundef %6, ptr noundef %7, ptr noundef %8) #0 {
  %10 = alloca ptr, align 8
  %11 = alloca ptr, align 8
  %12 = alloca i32, align 4
  %13 = alloca i32, align 4
  %14 = alloca i64, align 8
  %15 = alloca i16, align 2
  %16 = alloca i32, align 4
  %17 = alloca ptr, align 8
  %18 = alloca ptr, align 8
  %19 = alloca ptr, align 8
  %20 = alloca ptr, align 8
  %21 = alloca i32, align 4
  %22 = alloca i32, align 4
  %23 = alloca i64, align 8
  %24 = alloca ptr, align 8
  %25 = alloca i64, align 8
  %26 = alloca i32, align 4
  store ptr %0, ptr %11, align 8
  store i32 %1, ptr %12, align 4
  store i32 %2, ptr %13, align 4
  store i64 %3, ptr %14, align 8
  store i16 %4, ptr %15, align 2
  store i32 %5, ptr %16, align 4
  store ptr %6, ptr %17, align 8
  store ptr %7, ptr %18, align 8
  store ptr %8, ptr %19, align 8
  call void @llvm.lifetime.start.p0(i64 8, ptr %20) #13
  store ptr null, ptr %20, align 8, !annotation !4
  call void @llvm.lifetime.start.p0(i64 4, ptr %21) #13
  store i32 0, ptr %21, align 4, !annotation !4
  call void @llvm.lifetime.start.p0(i64 4, ptr %22) #13
  store i32 0, ptr %22, align 4, !annotation !4
  call void @llvm.lifetime.start.p0(i64 8, ptr %23) #13
  store i64 0, ptr %23, align 8, !annotation !4
  call void @llvm.lifetime.start.p0(i64 8, ptr %24) #13
  store ptr null, ptr %24, align 8, !annotation !4
  call void @llvm.lifetime.start.p0(i64 8, ptr %25) #13
  store i64 336, ptr %25, align 8
  %27 = load ptr, ptr %11, align 8
  %28 = icmp ne ptr %27, null
  br i1 %28, label %29, label %54

29:                                               ; preds = %9
  %30 = load ptr, ptr %11, align 8
  %31 = call zeroext i1 @vduse_name_is_invalid(ptr noundef %30)
  br i1 %31, label %54, label %32

32:                                               ; preds = %29
  %33 = load i64, ptr %14, align 8
  %34 = call zeroext i1 @has_feature(i64 noundef %33, i32 noundef 32)
  br i1 %34, label %35, label %54

35:                                               ; preds = %32
  %36 = load ptr, ptr %17, align 8
  %37 = icmp ne ptr %36, null
  br i1 %37, label %38, label %54

38:                                               ; preds = %35
  %39 = load i32, ptr %16, align 4
  %40 = icmp ne i32 %39, 0
  br i1 %40, label %41, label %54

41:                                               ; preds = %38
  %42 = load ptr, ptr %18, align 8
  %43 = icmp ne ptr %42, null
  br i1 %43, label %44, label %54

44:                                               ; preds = %41
  %45 = load ptr, ptr %18, align 8
  %46 = getelementptr inbounds nuw %struct.VduseOps, ptr %45, i32 0, i32 0
  %47 = load ptr, ptr %46, align 8
  %48 = icmp ne ptr %47, null
  br i1 %48, label %49, label %54

49:                                               ; preds = %44
  %50 = load ptr, ptr %18, align 8
  %51 = getelementptr inbounds nuw %struct.VduseOps, ptr %50, i32 0, i32 1
  %52 = load ptr, ptr %51, align 8
  %53 = icmp ne ptr %52, null
  br i1 %53, label %57, label %54

54:                                               ; preds = %49, %44, %41, %38, %35, %32, %29, %9
  %55 = load ptr, ptr @stderr, align 8
  %56 = call i32 (ptr, ptr, ...) @fprintf(ptr noundef %55, ptr noundef @.str.6) #13
  store ptr null, ptr %10, align 8
  store i32 1, ptr %26, align 4
  br label %178

57:                                               ; preds = %49
  %58 = call noalias ptr @calloc(i64 noundef 8272, i64 noundef 1) #17
  store ptr %58, ptr %20, align 8
  %59 = load ptr, ptr %20, align 8
  %60 = icmp ne ptr %59, null
  br i1 %60, label %64, label %61

61:                                               ; preds = %57
  %62 = load ptr, ptr @stderr, align 8
  %63 = call i32 (ptr, ptr, ...) @fprintf(ptr noundef %62, ptr noundef @.str.7) #13
  store ptr null, ptr %10, align 8
  store i32 1, ptr %26, align 4
  br label %178

64:                                               ; preds = %57
  %65 = call i32 (ptr, i32, ...) @open64(ptr noundef @.str.11, i32 noundef 2)
  store i32 %65, ptr %22, align 4
  %66 = load i32, ptr %22, align 4
  %67 = icmp slt i32 %66, 0
  br i1 %67, label %68, label %74

68:                                               ; preds = %64
  %69 = load ptr, ptr @stderr, align 8
  %70 = call ptr @__errno_location() #14
  %71 = load i32, ptr %70, align 4
  %72 = call ptr @strerror(i32 noundef %71) #13
  %73 = call i32 (ptr, ptr, ...) @fprintf(ptr noundef %69, ptr noundef @.str.12, ptr noundef %72) #13
  br label %176

74:                                               ; preds = %64
  store i64 0, ptr %23, align 8
  %75 = load i32, ptr %22, align 4
  %76 = call i32 (i32, i64, ...) @ioctl(i32 noundef %75, i64 noundef 1074299137, ptr noundef %23) #13
  %77 = icmp ne i32 %76, 0
  br i1 %77, label %78, label %85

78:                                               ; preds = %74
  %79 = load ptr, ptr @stderr, align 8
  %80 = load i64, ptr %23, align 8
  %81 = call ptr @__errno_location() #14
  %82 = load i32, ptr %81, align 4
  %83 = call ptr @strerror(i32 noundef %82) #13
  %84 = call i32 (ptr, ptr, ...) @fprintf(ptr noundef %79, ptr noundef @.str.13, i64 noundef %80, ptr noundef %83) #13
  br label %173

85:                                               ; preds = %74
  %86 = load i64, ptr %25, align 8
  %87 = load i32, ptr %16, align 4
  %88 = zext i32 %87 to i64
  %89 = add i64 %86, %88
  %90 = call noalias ptr @calloc(i64 noundef %89, i64 noundef 1) #17
  store ptr %90, ptr %24, align 8
  %91 = load ptr, ptr %24, align 8
  %92 = icmp ne ptr %91, null
  br i1 %92, label %96, label %93

93:                                               ; preds = %85
  %94 = load ptr, ptr @stderr, align 8
  %95 = call i32 (ptr, ptr, ...) @fprintf(ptr noundef %94, ptr noundef @.str.14) #13
  br label %173

96:                                               ; preds = %85
  %97 = load ptr, ptr %11, align 8
  %98 = call zeroext i1 @vduse_name_is_invalid(ptr noundef %97)
  br i1 %98, label %100, label %99

99:                                               ; preds = %96
  br label %101

100:                                              ; preds = %96
  call void @__assert_fail(ptr noundef @.str.15, ptr noundef @.str.16, i32 noundef 1317, ptr noundef @__PRETTY_FUNCTION__.vduse_dev_create) #15
  unreachable

101:                                              ; preds = %99
  %102 = load ptr, ptr %24, align 8
  %103 = getelementptr inbounds nuw %struct.vduse_dev_config, ptr %102, i32 0, i32 0
  %104 = getelementptr inbounds [256 x i8], ptr %103, i64 0, i64 0
  %105 = load ptr, ptr %11, align 8
  %106 = call ptr @strcpy(ptr noundef %104, ptr noundef %105) #13
  %107 = load i32, ptr %12, align 4
  %108 = load ptr, ptr %24, align 8
  %109 = getelementptr inbounds nuw %struct.vduse_dev_config, ptr %108, i32 0, i32 2
  store i32 %107, ptr %109, align 4
  %110 = load i32, ptr %13, align 4
  %111 = load ptr, ptr %24, align 8
  %112 = getelementptr inbounds nuw %struct.vduse_dev_config, ptr %111, i32 0, i32 1
  store i32 %110, ptr %112, align 8
  %113 = load i64, ptr %14, align 8
  %114 = load ptr, ptr %24, align 8
  %115 = getelementptr inbounds nuw %struct.vduse_dev_config, ptr %114, i32 0, i32 3
  store i64 %113, ptr %115, align 8
  %116 = load i16, ptr %15, align 2
  %117 = zext i16 %116 to i32
  %118 = load ptr, ptr %24, align 8
  %119 = getelementptr inbounds nuw %struct.vduse_dev_config, ptr %118, i32 0, i32 4
  store i32 %117, ptr %119, align 8
  %120 = load ptr, ptr %24, align 8
  %121 = getelementptr inbounds nuw %struct.vduse_dev_config, ptr %120, i32 0, i32 5
  store i32 4096, ptr %121, align 4
  %122 = load i32, ptr %16, align 4
  %123 = load ptr, ptr %24, align 8
  %124 = getelementptr inbounds nuw %struct.vduse_dev_config, ptr %123, i32 0, i32 7
  store i32 %122, ptr %124, align 4
  %125 = load ptr, ptr %24, align 8
  %126 = getelementptr inbounds nuw %struct.vduse_dev_config, ptr %125, i32 0, i32 8
  %127 = getelementptr inbounds [0 x i8], ptr %126, i64 0, i64 0
  %128 = load ptr, ptr %17, align 8
  %129 = load i32, ptr %16, align 4
  %130 = zext i32 %129 to i64
  call void @llvm.memcpy.p0.p0.i64(ptr align 8 %127, ptr align 1 %128, i64 %130, i1 false)
  %131 = load i32, ptr %22, align 4
  %132 = load ptr, ptr %24, align 8
  %133 = call i32 (i32, i64, ...) @ioctl(i32 noundef %131, i64 noundef 1095794946, ptr noundef %132) #13
  store i32 %133, ptr %21, align 4
  %134 = load ptr, ptr %24, align 8
  call void @free(ptr noundef %134) #13
  %135 = load i32, ptr %21, align 4
  %136 = icmp ne i32 %135, 0
  br i1 %136, label %137, label %148

137:                                              ; preds = %101
  %138 = call ptr @__errno_location() #14
  %139 = load i32, ptr %138, align 4
  %140 = icmp ne i32 %139, 17
  br i1 %140, label %141, label %148

141:                                              ; preds = %137
  %142 = load ptr, ptr @stderr, align 8
  %143 = load ptr, ptr %11, align 8
  %144 = call ptr @__errno_location() #14
  %145 = load i32, ptr %144, align 4
  %146 = call ptr @strerror(i32 noundef %145) #13
  %147 = call i32 (ptr, ptr, ...) @fprintf(ptr noundef %142, ptr noundef @.str.17, ptr noundef %143, ptr noundef %146) #13
  br label %173

148:                                              ; preds = %137, %101
  %149 = load i32, ptr %22, align 4
  %150 = load ptr, ptr %20, align 8
  %151 = getelementptr inbounds nuw %struct.VduseDev, ptr %150, i32 0, i32 11
  store i32 %149, ptr %151, align 4
  %152 = load ptr, ptr %20, align 8
  %153 = load ptr, ptr %11, align 8
  %154 = load i16, ptr %15, align 2
  %155 = load ptr, ptr %18, align 8
  %156 = load ptr, ptr %19, align 8
  %157 = call i32 @vduse_dev_init(ptr noundef %152, ptr noundef %153, i16 noundef zeroext %154, ptr noundef %155, ptr noundef %156)
  store i32 %157, ptr %21, align 4
  %158 = load i32, ptr %21, align 4
  %159 = icmp slt i32 %158, 0
  br i1 %159, label %160, label %167

160:                                              ; preds = %148
  %161 = load ptr, ptr @stderr, align 8
  %162 = load ptr, ptr %11, align 8
  %163 = load i32, ptr %21, align 4
  %164 = sub i32 0, %163
  %165 = call ptr @strerror(i32 noundef %164) #13
  %166 = call i32 (ptr, ptr, ...) @fprintf(ptr noundef %161, ptr noundef @.str.10, ptr noundef %162, ptr noundef %165) #13
  br label %169

167:                                              ; preds = %148
  %168 = load ptr, ptr %20, align 8
  store ptr %168, ptr %10, align 8
  store i32 1, ptr %26, align 4
  br label %178

169:                                              ; preds = %160
  %170 = load i32, ptr %22, align 4
  %171 = load ptr, ptr %11, align 8
  %172 = call i32 (i32, i64, ...) @ioctl(i32 noundef %170, i64 noundef 1090552067, ptr noundef %171) #13
  br label %173

173:                                              ; preds = %169, %141, %93, %78
  %174 = load i32, ptr %22, align 4
  %175 = call i32 @close(i32 noundef %174)
  br label %176

176:                                              ; preds = %173, %68
  %177 = load ptr, ptr %20, align 8
  call void @free(ptr noundef %177) #13
  store ptr null, ptr %10, align 8
  store i32 1, ptr %26, align 4
  br label %178

178:                                              ; preds = %176, %167, %61, %54
  call void @llvm.lifetime.end.p0(i64 8, ptr %25) #13
  call void @llvm.lifetime.end.p0(i64 8, ptr %24) #13
  call void @llvm.lifetime.end.p0(i64 8, ptr %23) #13
  call void @llvm.lifetime.end.p0(i64 4, ptr %22) #13
  call void @llvm.lifetime.end.p0(i64 4, ptr %21) #13
  call void @llvm.lifetime.end.p0(i64 8, ptr %20) #13
  %179 = load ptr, ptr %10, align 8
  ret ptr %179
}