; Function Attrs: nounwind uwtable
define dso_local noundef ptr @vduse_dev_create(ptr noundef %0, i32 noundef %1, i32 noundef %2, i64 noundef %3, i16 noundef zeroext %4, i32 noundef %5, ptr noundef readonly captures(address_is_null) %6, ptr noundef %7, ptr noundef %8) local_unnamed_addr #2 {
  %10 = alloca i64, align 8
  call void @llvm.lifetime.start.p0(i64 8, ptr nonnull %10) #20
  %.not = icmp eq ptr %0, null
  br i1 %.not, label %vduse_name_is_invalid.exit.thread, label %11

11:                                               ; preds = %9
  %12 = tail call i64 @strlen(ptr noundef nonnull readonly dereferenceable(1) %0) #27
  %13 = icmp ugt i64 %12, 255
  br i1 %13, label %vduse_name_is_invalid.exit.thread, label %vduse_name_is_invalid.exit

vduse_name_is_invalid.exit:                       ; preds = %11
  %14 = tail call ptr @strstr(ptr noundef nonnull readonly dereferenceable(1) %0, ptr noundef nonnull dereferenceable(1) @.str.38) #27
  %.not73 = icmp eq ptr %14, null
  br i1 %.not73, label %15, label %vduse_name_is_invalid.exit.thread

15:                                               ; preds = %vduse_name_is_invalid.exit
  %16 = and i64 %3, 4294967296
  %17 = icmp ne i64 %16, 0
  %18 = icmp ne ptr %6, null
  %or.cond = and i1 %17, %18
  %19 = icmp ne i32 %5, 0
  %or.cond3 = and i1 %19, %or.cond
  %20 = icmp ne ptr %7, null
  %or.cond5 = and i1 %20, %or.cond3
  br i1 %or.cond5, label %21, label %vduse_name_is_invalid.exit.thread

21:                                               ; preds = %15
  %22 = load ptr, ptr %7, align 8
  %.not65 = icmp eq ptr %22, null
  br i1 %.not65, label %vduse_name_is_invalid.exit.thread, label %23

23:                                               ; preds = %21
  %24 = getelementptr inbounds nuw i8, ptr %7, i64 8
  %25 = load ptr, ptr %24, align 8
  %.not66 = icmp eq ptr %25, null
  br i1 %.not66, label %vduse_name_is_invalid.exit.thread, label %28

vduse_name_is_invalid.exit.thread:                ; preds = %11, %23, %21, %15, %vduse_name_is_invalid.exit, %9
  %26 = load ptr, ptr @stderr, align 8
  %27 = tail call i64 @fwrite(ptr nonnull @.str.6, i64 28, i64 1, ptr %26) #23
  br label %93

28:                                               ; preds = %23
  %29 = tail call noalias dereferenceable_or_null(8272) ptr @calloc(i64 noundef 8272, i64 noundef 1) #26
  %.not67 = icmp eq ptr %29, null
  br i1 %.not67, label %30, label %33

30:                                               ; preds = %28
  %31 = load ptr, ptr @stderr, align 8
  %32 = tail call i64 @fwrite(ptr nonnull @.str.7, i64 32, i64 1, ptr %31) #23
  br label %93

33:                                               ; preds = %28
  %34 = tail call i32 (ptr, i32, ...) @open64(ptr noundef nonnull @.str.11, i32 noundef 2) #20
  %35 = icmp slt i32 %34, 0
  br i1 %35, label %36, label %42

36:                                               ; preds = %33
  %37 = load ptr, ptr @stderr, align 8
  %38 = tail call ptr @__errno_location() #21
  %39 = load i32, ptr %38, align 4
  %40 = tail call ptr @strerror(i32 noundef %39) #20
  %41 = tail call i32 (ptr, ptr, ...) @fprintf(ptr noundef %37, ptr noundef nonnull @.str.12, ptr noundef %40) #22
  br label %92

42:                                               ; preds = %33
  store i64 0, ptr %10, align 8
  %43 = call i32 (i32, i64, ...) @ioctl(i32 noundef %34, i64 noundef 1074299137, ptr noundef nonnull %10) #20
  %.not68 = icmp eq i32 %43, 0
  br i1 %.not68, label %51, label %44

44:                                               ; preds = %42
  %45 = load ptr, ptr @stderr, align 8
  %46 = load i64, ptr %10, align 8
  %47 = tail call ptr @__errno_location() #21
  %48 = load i32, ptr %47, align 4
  %49 = call ptr @strerror(i32 noundef %48) #20
  %50 = call i32 (ptr, ptr, ...) @fprintf(ptr noundef %45, ptr noundef nonnull @.str.13, i64 noundef %46, ptr noundef %49) #22
  br label %90

51:                                               ; preds = %42
  %52 = zext i32 %5 to i64
  %53 = add nuw nsw i64 %52, 336
  %54 = call noalias ptr @calloc(i64 noundef %53, i64 noundef 1) #26
  %.not69 = icmp eq ptr %54, null
  br i1 %.not69, label %55, label %58

55:                                               ; preds = %51
  %56 = load ptr, ptr @stderr, align 8
  %57 = call i64 @fwrite(ptr nonnull @.str.14, i64 32, i64 1, ptr %56) #23
  br label %90

58:                                               ; preds = %51
  %59 = call i64 @strlen(ptr noundef nonnull readonly dereferenceable(1) %0) #27
  %60 = icmp ugt i64 %59, 255
  br i1 %60, label %vduse_name_is_invalid.exit72.thread, label %vduse_name_is_invalid.exit72

vduse_name_is_invalid.exit72:                     ; preds = %58
  %61 = call ptr @strstr(ptr noundef nonnull readonly dereferenceable(1) %0, ptr noundef nonnull dereferenceable(1) @.str.38) #27
  %.not74 = icmp eq ptr %61, null
  br i1 %.not74, label %62, label %vduse_name_is_invalid.exit72.thread

vduse_name_is_invalid.exit72.thread:              ; preds = %58, %vduse_name_is_invalid.exit72
  call void @__assert_fail(ptr noundef nonnull @.str.15, ptr noundef nonnull @.str.16, i32 noundef 1317, ptr noundef nonnull @__PRETTY_FUNCTION__.vduse_dev_create) #24
  unreachable

62:                                               ; preds = %vduse_name_is_invalid.exit72
  %63 = call ptr @strcpy(ptr noundef nonnull dereferenceable(1) %54, ptr noundef nonnull dereferenceable(1) %0) #20
  %64 = getelementptr inbounds nuw i8, ptr %54, i64 260
  store i32 %1, ptr %64, align 4
  %65 = getelementptr inbounds nuw i8, ptr %54, i64 256
  store i32 %2, ptr %65, align 8
  %66 = getelementptr inbounds nuw i8, ptr %54, i64 264
  store i64 %3, ptr %66, align 8
  %67 = zext i16 %4 to i32
  %68 = getelementptr inbounds nuw i8, ptr %54, i64 272
  store i32 %67, ptr %68, align 8
  %69 = getelementptr inbounds nuw i8, ptr %54, i64 276
  store i32 4096, ptr %69, align 4
  %70 = getelementptr inbounds nuw i8, ptr %54, i64 332
  store i32 %5, ptr %70, align 4
  %71 = getelementptr inbounds nuw i8, ptr %54, i64 336
  call void @llvm.memcpy.p0.p0.i64(ptr nonnull align 8 %71, ptr nonnull align 1 %6, i64 %52, i1 false)
  %72 = call i32 (i32, i64, ...) @ioctl(i32 noundef %34, i64 noundef 1095794946, ptr noundef nonnull %54) #20
  call void @free(ptr noundef nonnull %54) #20
  %.not70 = icmp eq i32 %72, 0
  br i1 %.not70, label %80, label %73

73:                                               ; preds = %62
  %74 = tail call ptr @__errno_location() #21
  %75 = load i32, ptr %74, align 4
  %.not71 = icmp eq i32 %75, 17
  br i1 %.not71, label %80, label %76

76:                                               ; preds = %73
  %77 = load ptr, ptr @stderr, align 8
  %78 = call ptr @strerror(i32 noundef %75) #20
  %79 = call i32 (ptr, ptr, ...) @fprintf(ptr noundef %77, ptr noundef nonnull @.str.17, ptr noundef nonnull %0, ptr noundef %78) #22
  br label %90

80:                                               ; preds = %73, %62
  %81 = getelementptr inbounds nuw i8, ptr %29, i64 8252
  store i32 %34, ptr %81, align 4
  %82 = call fastcc i32 @vduse_dev_init(ptr noundef %29, ptr noundef %0, i16 noundef zeroext %4, ptr noundef %7, ptr noundef %8)
  %83 = icmp slt i32 %82, 0
  br i1 %83, label %84, label %93

84:                                               ; preds = %80
  %85 = load ptr, ptr @stderr, align 8
  %86 = sub i32 0, %82
  %87 = call ptr @strerror(i32 noundef %86) #20
  %88 = call i32 (ptr, ptr, ...) @fprintf(ptr noundef %85, ptr noundef nonnull @.str.10, ptr noundef nonnull %0, ptr noundef %87) #22
  %89 = call i32 (i32, i64, ...) @ioctl(i32 noundef %34, i64 noundef 1090552067, ptr noundef nonnull %0) #20
  br label %90

90:                                               ; preds = %84, %76, %55, %44
  %91 = call i32 @close(i32 noundef %34) #20
  br label %92

92:                                               ; preds = %90, %36
  call void @free(ptr noundef nonnull %29) #20
  br label %93

93:                                               ; preds = %80, %92, %30, %vduse_name_is_invalid.exit.thread
  %.0 = phi ptr [ null, %vduse_name_is_invalid.exit.thread ], [ null, %92 ], [ null, %30 ], [ %29, %80 ]
  call void @llvm.lifetime.end.p0(i64 8, ptr nonnull %10) #20
  ret ptr %.0
}